target datalayout = "e-m:e-p270:32:32-p271:32:32-p272:64:64-i64:64-i128:128-f80:128-n8:16:32:64-S128"
target triple = "x86_64-pc-linux-gnu"

%struct._zend_array = type { %struct._zend_refcounted_h, %union.anon.0, i32, %union.anon.1, i32, i32, i32, i32, i64, ptr }
%struct._zend_refcounted_h = type { i32, %union.anon }
%union.anon = type { i32 }
%union.anon.0 = type { i32 }
%union.anon.1 = type { ptr }
%struct._zval_struct = type { %union._zend_value, %union.anon.3, %union.anon.6 }
%union._zend_value = type { i64 }
%union.anon.3 = type { i32 }
%union.anon.6 = type { i32 }

@url_stream_wrappers_hash = internal global %struct._zend_array zeroinitializer, align 8
@zend_string_init_interned = external global ptr, align 8

; Function Attrs: nounwind uwtable
define internal i32 @php_stream_wrapper_scheme_validate(ptr noundef %0, i32 noundef %1) #0 {
  %3 = alloca i32, align 4
  %4 = alloca ptr, align 8
  %5 = alloca i32, align 4
  %6 = alloca i32, align 4
  store ptr %0, ptr %4, align 8
  store i32 %1, ptr %5, align 4
  store i32 0, ptr %6, align 4
  br label %7

7:                                                ; preds = %52, %2
  %8 = load i32, ptr %6, align 4
  %9 = load i32, ptr %5, align 4
  %10 = icmp ult i32 %8, %9
  br i1 %10, label %11, label %55

11:                                               ; preds = %7
  %12 = call ptr @__ctype_b_loc() #19
  %13 = load ptr, ptr %12, align 8
  %14 = load ptr, ptr %4, align 8
  %15 = load i32, ptr %6, align 4
  %16 = zext i32 %15 to i64
  %17 = getelementptr inbounds i8, ptr %14, i64 %16
  %18 = load i8, ptr %17, align 1
  %19 = sext i8 %18 to i32
  %20 = sext i32 %19 to i64
  %21 = getelementptr inbounds i16, ptr %13, i64 %20
  %22 = load i16, ptr %21, align 2
  %23 = zext i16 %22 to i32
  %24 = and i32 %23, 8
  %25 = icmp ne i32 %24, 0
  br i1 %25, label %51, label %26

26:                                               ; preds = %11
  %27 = load ptr, ptr %4, align 8
  %28 = load i32, ptr %6, align 4
  %29 = zext i32 %28 to i64
  %30 = getelementptr inbounds i8, ptr %27, i64 %29
  %31 = load i8, ptr %30, align 1
  %32 = sext i8 %31 to i32
  %33 = icmp ne i32 %32, 43
  br i1 %33, label %34, label %51

34:                                               ; preds = %26
  %35 = load ptr, ptr %4, align 8
  %36 = load i32, ptr %6, align 4
  %37 = zext i32 %36 to i64
  %38 = getelementptr inbounds i8, ptr %35, i64 %37
  %39 = load i8, ptr %38, align 1
  %40 = sext i8 %39 to i32
  %41 = icmp ne i32 %40, 45
  br i1 %41, label %42, label %51

42:                                               ; preds = %34
  %43 = load ptr, ptr %4, align 8
  %44 = load i32, ptr %6, align 4
  %45 = zext i32 %44 to i64
  %46 = getelementptr inbounds i8, ptr %43, i64 %45
  %47 = load i8, ptr %46, align 1
  %48 = sext i8 %47 to i32
  %49 = icmp ne i32 %48, 46
  br i1 %49, label %50, label %51

50:                                               ; preds = %42
  store i32 -1, ptr %3, align 4
  br label %56

51:                                               ; preds = %42, %34, %26, %11
  br label %52

52:                                               ; preds = %51
  %53 = load i32, ptr %6, align 4
  %54 = add i32 %53, 1
  store i32 %54, ptr %6, align 4
  br label %7

55:                                               ; preds = %7
  store i32 0, ptr %3, align 4
  br label %56

56:                                               ; preds = %55, %50
  %57 = load i32, ptr %3, align 4
  ret i32 %57
}

; Function Attrs: nounwind uwtable
define i32 @php_register_url_stream_wrapper(ptr noundef %0, ptr noundef %1) #0 {
  %3 = alloca ptr, align 8
  %4 = alloca i32, align 4
  %5 = alloca ptr, align 8
  %6 = alloca i8, align 1
  %7 = alloca ptr, align 8
  %8 = alloca ptr, align 8
  %9 = alloca ptr, align 8
  %10 = alloca ptr, align 8
  %11 = alloca %struct._zval_struct, align 8
  %12 = alloca ptr, align 8
  %13 = alloca i32, align 4
  %14 = alloca ptr, align 8
  %15 = alloca ptr, align 8
  %16 = alloca i64, align 8
  %17 = alloca i32, align 4
  %18 = alloca ptr, align 8
  store ptr %0, ptr %14, align 8
  store ptr %1, ptr %15, align 8
  %19 = load ptr, ptr %14, align 8
  %20 = call i64 @strlen(ptr noundef %19) #13
  store i64 %20, ptr %16, align 8
  %21 = load ptr, ptr %14, align 8
  %22 = load i64, ptr %16, align 8
  %23 = trunc i64 %22 to i32
  %24 = call i32 @php_stream_wrapper_scheme_validate(ptr noundef %21, i32 noundef %23)
  %25 = icmp eq i32 %24, -1
  br i1 %25, label %26, label %27

26:                                               ; preds = %2
  store i32 -1, ptr %13, align 4
  br label %80

27:                                               ; preds = %2
  %28 = load ptr, ptr @zend_string_init_interned, align 8
  %29 = load ptr, ptr %14, align 8
  %30 = load i64, ptr %16, align 8
  %31 = call ptr %28(ptr noundef %29, i64 noundef %30, i1 noundef zeroext true)
  store ptr %31, ptr %18, align 8
  %32 = load ptr, ptr %18, align 8
  %33 = load ptr, ptr %15, align 8
  store ptr @url_stream_wrappers_hash, ptr %8, align 8
  store ptr %32, ptr %9, align 8
  store ptr %33, ptr %10, align 8
  %34 = load ptr, ptr %10, align 8
  store ptr %34, ptr %11, align 8
  %35 = getelementptr inbounds %struct._zval_struct, ptr %11, i32 0, i32 1
  store i32 13, ptr %35, align 8
  %36 = load ptr, ptr %8, align 8
  %37 = load ptr, ptr %9, align 8
  %38 = call ptr @zend_hash_add(ptr noundef %36, ptr noundef %37, ptr noundef %11) #14
  store ptr %38, ptr %12, align 8
  %39 = load ptr, ptr %12, align 8
  %40 = icmp ne ptr %39, null
  br i1 %40, label %41, label %47

41:                                               ; preds = %27
  %42 = load ptr, ptr %12, align 8
  %43 = load ptr, ptr %42, align 8
  %44 = icmp ne ptr %43, null
  call void @llvm.assume(i1 %44)
  %45 = load ptr, ptr %12, align 8
  %46 = load ptr, ptr %45, align 8
  store ptr %46, ptr %7, align 8
  br label %48

47:                                               ; preds = %27
  store ptr null, ptr %7, align 8
  br label %48

48:                                               ; preds = %47, %41
  %49 = load ptr, ptr %7, align 8
  %50 = icmp ne ptr %49, null
  %51 = select i1 %50, i32 0, i32 -1
  store i32 %51, ptr %17, align 4
  %52 = load ptr, ptr %18, align 8
  store ptr %52, ptr %5, align 8
  store i8 1, ptr %6, align 1
  %53 = load ptr, ptr %5, align 8
  %54 = getelementptr inbounds %struct._zend_refcounted_h, ptr %53, i32 0, i32 1
  %55 = load i32, ptr %54, align 4
  store i32 %55, ptr %4, align 4
  %56 = load i32, ptr %4, align 4
  %57 = and i32 %56, 1008
  %58 = and i32 %57, 64
  %59 = icmp ne i32 %58, 0
  br i1 %59, label %78, label %60

60:                                               ; preds = %48
  %61 = load ptr, ptr %5, align 8
  store ptr %61, ptr %3, align 8
  %62 = load ptr, ptr %3, align 8
  %63 = load i32, ptr %62, align 4
  %64 = icmp ugt i32 %63, 0
  call void @llvm.assume(i1 %64)
  %65 = load ptr, ptr %3, align 8
  %66 = load i32, ptr %65, align 4
  %67 = add i32 %66, -1
  store i32 %67, ptr %65, align 4
  %68 = icmp eq i32 %67, 0
  br i1 %68, label %69, label %77

69:                                               ; preds = %60
  %70 = load i8, ptr %6, align 1
  %71 = trunc i8 %70 to i1
  br i1 %71, label %72, label %74

72:                                               ; preds = %69
  %73 = load ptr, ptr %5, align 8
  call void @free(ptr noundef %73) #14
  br label %76

74:                                               ; preds = %69
  %75 = load ptr, ptr %5, align 8
  call void @_efree(ptr noundef %75) #14
  br label %76

76:                                               ; preds = %74, %72
  br label %77

77:                                               ; preds = %76, %60
  br label %78

78:                                               ; preds = %77, %48
  %79 = load i32, ptr %17, align 4
  store i32 %79, ptr %13, align 4
  br label %80

80:                                               ; preds = %78, %26
  %81 = load i32, ptr %13, align 4
  ret i32 %81
}