; Function Attrs: nounwind uwtable
define i32 @php_register_url_stream_wrapper(ptr noundef %0, ptr noundef %1) local_unnamed_addr #2 {
  %3 = alloca %struct._zval_struct, align 8
  %4 = tail call i64 @strlen(ptr noundef nonnull dereferenceable(1) %0) #28
  %5 = and i64 %4, 4294967295
  %.not.i = icmp eq i64 %5, 0
  br i1 %.not.i, label %.loopexit, label %.lr.ph.i

.lr.ph.i:                                         ; preds = %2
  %6 = tail call ptr @__ctype_b_loc() #31
  %7 = load ptr, ptr %6, align 8
  br label %8

8:                                                ; preds = %15, %.lr.ph.i
  %indvars.iv.i = phi i64 [ 0, %.lr.ph.i ], [ %indvars.iv.next.i, %15 ]
  %9 = getelementptr inbounds i8, ptr %0, i64 %indvars.iv.i
  %10 = load i8, ptr %9, align 1
  %11 = sext i8 %10 to i64
  %12 = getelementptr inbounds i16, ptr %7, i64 %11
  %13 = load i16, ptr %12, align 2
  %.fr18.i = freeze i16 %13
  %14 = and i16 %.fr18.i, 8
  %.not.not.i = icmp eq i16 %14, 0
  br i1 %.not.not.i, label %switch.early.test.i, label %15

switch.early.test.i:                              ; preds = %8
  switch i8 %10, label %php_stream_wrapper_scheme_validate.exit [
    i8 46, label %15
    i8 45, label %15
    i8 43, label %15
  ]

15:                                               ; preds = %switch.early.test.i, %switch.early.test.i, %switch.early.test.i, %8
  %indvars.iv.next.i = add nuw nsw i64 %indvars.iv.i, 1
  %exitcond.not.i = icmp eq i64 %indvars.iv.next.i, %5
  br i1 %exitcond.not.i, label %.loopexit, label %8

.loopexit:                                        ; preds = %15, %2
  %16 = load ptr, ptr @zend_string_init_interned, align 8
  %17 = tail call ptr %16(ptr noundef %0, i64 noundef %4, i1 noundef zeroext true) #27
  store ptr %1, ptr %3, align 8
  %18 = getelementptr inbounds i8, ptr %3, i64 8
  store i32 13, ptr %18, align 8
  %19 = call ptr @zend_hash_add(ptr noundef nonnull @url_stream_wrappers_hash, ptr noundef %17, ptr noundef nonnull %3) #27
  %.not = icmp eq ptr %19, null
  %20 = sext i1 %.not to i32
  %21 = getelementptr inbounds i8, ptr %17, i64 4
  %22 = load i32, ptr %21, align 4
  %23 = and i32 %22, 64
  %.not27 = icmp eq i32 %23, 0
  br i1 %.not27, label %24, label %php_stream_wrapper_scheme_validate.exit

24:                                               ; preds = %.loopexit
  %25 = load i32, ptr %17, align 4
  %26 = icmp ne i32 %25, 0
  call void @llvm.assume(i1 %26)
  %27 = add i32 %25, -1
  store i32 %27, ptr %17, align 4
  %28 = icmp eq i32 %27, 0
  br i1 %28, label %29, label %php_stream_wrapper_scheme_validate.exit

29:                                               ; preds = %24
  call void @free(ptr noundef nonnull %17) #27
  br label %php_stream_wrapper_scheme_validate.exit

php_stream_wrapper_scheme_validate.exit:          ; preds = %switch.early.test.i, %.loopexit, %29, %24
  %.024 = phi i32 [ %20, %24 ], [ %20, %29 ], [ %20, %.loopexit ], [ -1, %switch.early.test.i ]
  ret i32 %.024
}